Microchip MPLAB XC8 Compiler V2.32

Linker command line:

-W-3 \
  --edf=D:\Applications\Programming\Programming Environments\xc8_compiler\pic\dat\en_msgs.txt \
  -cn -h+dist/default/production\src.X.production.sym \
  --cmf=dist/default/production\src.X.production.cmf -z -Q18F4520 \
  -oC:\Users\anton\AppData\Local\Temp\xcAs9u0.4 --defsym=__MPLAB_BUILD=1 \
  -Mdist/default/production/src.X.production.map -E1 -ver=XC8 Compiler \
  --acfsm=1493 -ASTACK=0BAh-05FFh -pstack=STACK -ACODE=00h-07FFFh \
  -ACONST=00h-07FFFh -ASMALLCONST=0600h-06FFhx122 \
  -AMEDIUMCONST=0600h-07FFFh -ACOMRAM=01h-07Fh -AABS1=00h-05FFh \
  -ABIGRAM=01h-05FFh -ARAM=080h-0FFh,0100h-01FFhx5 -ABANK0=080h-0FFh \
  -ABANK1=0100h-01FFh -ABANK2=0200h-02FFh -ABANK3=0300h-03FFh \
  -ABANK4=0400h-04FFh -ABANK5=0500h-05FFh -ASFR=0F80h-0FFFh \
  -ACONFIG=0300000h-030000Dh -AIDLOC=0200000h-0200007h \
  -AEEDATA=0F00000h-0F000FFh -peeprom_data=EEDATA \
  -preset_vec=00h,intcode=08h,intcodelo,powerup,init -pramtop=0600h \
  -psmallconst=SMALLCONST -pmediumconst=MEDIUMCONST -pconst=CONST \
  -AFARRAM=00h-00h \
  -prdata=COMRAM,nvrram=COMRAM,nvbit=COMRAM,rbss=COMRAM,rbit=COMRAM \
  -pfarbss=FARRAM,fardata=FARRAM,nvFARRAM=FARRAM \
  -pintsave_regs=BIGRAM,bigbss=BIGRAM,bigdata=BIGRAM -pbss=RAM \
  -pidata=CODE,irdata=CODE,ibigdata=CODE,ifardata=CODE -prparam=COMRAM \
  C:\Users\anton\AppData\Local\Temp\xcAs9u0.o \
  dist/default/production\src.X.production.o 

Object code version is 3.11

Machine type is 18F4520



                Name                               Link     Load   Length Selector   Space Scale
C:\Users\anton\AppData\Local\Temp\xcAs9u0.o
                idloc                            200000   200000        8        0       5
                config                           300000   300000        E        0       4
                init                                  E        E        4        4       0
                reset_vec                             0        0        4        0       0
dist/default/production\src.X.production.o
                intcode                               8        8        6        4       0
                idloc                            200000   200000        8        0       5
                config                           300000   300000        E        0       4
                temp                                 68       68        1        1       1
                smallconst                          600      600        8      300       0
                text19                             1042     1042       B0      304       0
                text18                              D5C      D5C       C4      304       0
                text17                             1472     1472       16      304       0
                text16                             118A     118A       96      304       0
                text15                              9F8      9F8      1A4      304       0
                text14                             1296     1296       72      304       0
                text13                             1434     1434       26      304       0
                text12                              EDA      EDA       B6      304       0
                text11                             1364     1364       56      304       0
                intcode_body                        B9C      B9C       FA      304       0
                text9                               F90      F90       B2      304       0
                text8                               C96      C96       C6      304       0
                text7                              145A     145A       18      304       0
                text6                              10F2     10F2       98      304       0
                text5                               84C      84C      1AC      304       0
                text4                              1220     1220       76      304       0
                text3                              140C     140C       28      304       0
                text2                               E20      E20       BA      304       0
                text1                              1308     1308       5C      304       0
                text0                               608      608      244      304       0
                cstackCOMRAM                          1        1       37        1       1
                cstackBANK0                          80       80       31       80       1
                dataBANK0                            B1       B1        9       80       1
                dataCOMRAM                           66       66        2        1       1
                bssCOMRAM                            38       38       2E        1       1
                cinit                              13BA     13BA       52      304       0
                idataBANK0                         1488     1488        9      304       0
                idataCOMRAM                        1491     1491        2      304       0

TOTAL           Name                               Link     Load   Length     Space
        CLASS   STACK          

        CLASS   CODE           
                intcode                               8        8        6         0
                init                                  E        E        4         0
                reset_vec                             0        0        4         0
                text19                             1042     1042       B0         0
                text18                              D5C      D5C       C4         0
                text17                             1472     1472       16         0
                text16                             118A     118A       96         0
                text15                              9F8      9F8      1A4         0
                text14                             1296     1296       72         0
                text13                             1434     1434       26         0
                text12                              EDA      EDA       B6         0
                text11                             1364     1364       56         0
                intcode_body                        B9C      B9C       FA         0
                text9                               F90      F90       B2         0
                text8                               C96      C96       C6         0
                text7                              145A     145A       18         0
                text6                              10F2     10F2       98         0
                text5                               84C      84C      1AC         0
                text4                              1220     1220       76         0
                text3                              140C     140C       28         0
                text2                               E20      E20       BA         0
                text1                              1308     1308       5C         0
                text0                               608      608      244         0
                cinit                              13BA     13BA       52         0
                idataBANK0                         1488     1488        9         0
                idataCOMRAM                        1491     1491        2         0

        CLASS   CONST          

        CLASS   SMALLCONST     
                smallconst                          600      600        8         0

        CLASS   MEDIUMCONST    

        CLASS   COMRAM         
                temp                                 68       68        1         1
                cstackCOMRAM                          1        1       37         1
                dataCOMRAM                           66       66        2         1
                bssCOMRAM                            38       38       2E         1

        CLASS   ABS1           

        CLASS   BIGRAM         

        CLASS   RAM            

        CLASS   BANK0          
                cstackBANK0                          80       80       31         1
                dataBANK0                            B1       B1        9         1

        CLASS   BANK1          

        CLASS   BANK2          

        CLASS   BANK3          

        CLASS   BANK4          

        CLASS   BANK5          

        CLASS   SFR            

        CLASS   CONFIG         
                config                           300000   300000        E         4

        CLASS   IDLOC          
                idloc                            200000   200000        8         5

        CLASS   EEDATA         

        CLASS   FARRAM         



SEGMENTS        Name                           Load    Length   Top    Selector   Space  Class

                reset_vec                      000000  000004  000004         0       0  CODE    
                cstackCOMRAM                   000001  000068  000069         1       1  COMRAM  
                intcode                        000008  00000A  000012         4       0  CODE    
                cstackBANK0                    000080  00003A  0000BA        80       1  BANK0   
                smallconst                     000600  000008  000608       300       0  SMALLCON
                text0                          000608  000E8B  001493       304       0  CODE    


UNUSED ADDRESS RANGES

        Name                Unused          Largest block    Delta
        BANK0            0000BA-0000FF               46
        BANK1            000100-0001FF              100
        BANK2            000200-0002FF              100
        BANK3            000300-0003FF              100
        BANK4            000400-0004FF              100
        BANK5            000500-0005FF              100
        BIGRAM           000069-00007F               17
                         0000BA-0005FF              546
        CODE             000004-000007                4
                         000012-0005FF              5EE
                         001493-007FFF             6B6D
        COMRAM           000069-00007F               17
        CONST            000004-000007                4
                         000012-0005FF              5EE
                         001493-007FFF             6B6D
        EEDATA           F00000-F000FF              100
        MEDIUMCONST      001493-007FFF             6B6D
        RAM              0000BA-0005FF              100
        SFR              000F80-000FFF               80
        SMALLCONST       001493-007FFF              100
        STACK            0000BA-0005FF              546

                                  Symbol Table

?___awdiv                          cstackBANK0  000080
?___awmod                          cstackBANK0  000080
?_printf                           cstackBANK0  00009C
?_vfpfcnvrt                        cstackBANK0  00008A
?_vfprintf                         cstackBANK0  000094
?i2___awdiv                        cstackCOMRAM 000001
?i2___awmod                        cstackCOMRAM 000001
?i2_printf                         cstackCOMRAM 00001D
?i2_vfpfcnvrt                      cstackCOMRAM 00000B
?i2_vfprintf                       cstackCOMRAM 000015
_ADCON1bits                        (abs)        000FC1
_INTCON                            (abs)        000FF2
_LATA                              (abs)        000F89
_LATB                              (abs)        000F8A
_LATD                              (abs)        000F8C
_PIE1bits                          (abs)        000F9D
_PIR1bits                          (abs)        000F9E
_PORTCbits                         (abs)        000F82
_RCSTAbits                         (abs)        000FAB
_T1CONbits                         (abs)        000FCD
_TMR1                              (abs)        000FCE
_TMR1IF                            (abs)        007CF0
_TRISA                             (abs)        000F92
_TRISB                             (abs)        000F93
_TRISCbits                         (abs)        000F94
_TRISD                             (abs)        000F95
_TXREG                             (abs)        000FAD
_TXSTAbits                         (abs)        000FAC
__HRAM                             (abs)        000000
__Habs1                            abs1         000000
__Hbank0                           bank0        000000
__Hbank1                           bank1        000000
__Hbank2                           bank2        000000
__Hbank3                           bank3        000000
__Hbank4                           bank4        000000
__Hbank5                           bank5        000000
__Hbigbss                          bigbss       000000
__Hbigdata                         bigdata      000000
__Hbigram                          bigram       000000
__Hbss                             bss          000000
__HbssCOMRAM                       bssCOMRAM    000000
__Hcinit                           cinit        000000
__Hclrtext                         clrtext      000000
__Hcomram                          comram       000000
__Hconfig                          config       30000E
__Hconst                           const        000000
__HcstackBANK0                     cstackBANK0  000000
__HcstackCOMRAM                    cstackCOMRAM 000000
__Hdata                            data         000000
__HdataBANK0                       dataBANK0    000000
__HdataCOMRAM                      dataCOMRAM   000000
__Heeprom_data                     eeprom_data  000000
__Hfarbss                          farbss       000000
__Hfardata                         fardata      000000
__Hibigdata                        ibigdata     000000
__Hidata                           idata        000000
__HidataBANK0                      idataBANK0   000000
__HidataCOMRAM                     idataCOMRAM  000000
__Hidloc                           idloc        200008
__Hifardata                        ifardata     000000
__Hinit                            init         000012
__Hintcode                         intcode      00000E
__Hintcode_body                    intcode_body 000000
__Hintcodelo                       intcodelo    00000E
__Hintentry                        intentry     000000
__Hintret                          intret       000000
__Hintsave_regs                    intsave_regs 000000
__Hirdata                          irdata       000000
__Hmediumconst                     mediumconst  000000
__HnvFARRAM                        nvFARRAM     000000
__Hnvbit                           nvbit        000000
__Hnvrram                          nvrram       000000
__Hparam                           rparam       000000
__Hpowerup                         powerup      00000E
__Hram                             ram          000000
__Hramtop                          ramtop       000600
__Hrbit                            rbit         000000
__Hrbss                            rbss         000000
__Hrdata                           rdata        000000
__Hreset_vec                       reset_vec    000004
__Hrparam                          rparam       000000
__Hsfr                             sfr          000000
__Hsmallconst                      smallconst   000608
__Hspace_0                         (abs)        001493
__Hspace_1                         (abs)        0000BA
__Hspace_2                         (abs)        000000
__Hspace_4                         (abs)        60000E
__Hstack                           stack        000000
__Hstruct                          struct       000000
__Htemp                            temp         000069
__Htext                            text         000000
__Htext0                           text0        000000
__Htext1                           text1        000000
__Htext11                          text11       000000
__Htext12                          text12       000000
__Htext13                          text13       000000
__Htext14                          text14       000000
__Htext15                          text15       000000
__Htext16                          text16       000000
__Htext17                          text17       000000
__Htext18                          text18       000000
__Htext19                          text19       000000
__Htext2                           text2        000000
__Htext3                           text3        000000
__Htext4                           text4        000000
__Htext5                           text5        000000
__Htext6                           text6        000000
__Htext7                           text7        000000
__Htext8                           text8        000000
__Htext9                           text9        000000
__LRAM                             (abs)        000001
__Labs1                            abs1         000000
__Lbank0                           bank0        000000
__Lbank1                           bank1        000000
__Lbank2                           bank2        000000
__Lbank3                           bank3        000000
__Lbank4                           bank4        000000
__Lbank5                           bank5        000000
__Lbigbss                          bigbss       000000
__Lbigdata                         bigdata      000000
__Lbigram                          bigram       000000
__Lbss                             bss          000000
__LbssCOMRAM                       bssCOMRAM    000000
__Lcinit                           cinit        000000
__Lclrtext                         clrtext      000000
__Lcomram                          comram       000000
__Lconfig                          config       000000
__Lconst                           const        000000
__LcstackBANK0                     cstackBANK0  000000
__LcstackCOMRAM                    cstackCOMRAM 000000
__Ldata                            data         000000
__LdataBANK0                       dataBANK0    000000
__LdataCOMRAM                      dataCOMRAM   000000
__Leeprom_data                     eeprom_data  000000
__Lfarbss                          farbss       000000
__Lfardata                         fardata      000000
__Libigdata                        ibigdata     000000
__Lidata                           idata        000000
__LidataBANK0                      idataBANK0   000000
__LidataCOMRAM                     idataCOMRAM  000000
__Lidloc                           idloc        000000
__Lifardata                        ifardata     000000
__Linit                            init         00000E
__Lintcode                         intcode      000008
__Lintcode_body                    intcode_body 000000
__Lintcodelo                       intcodelo    00000E
__Lintentry                        intentry     000000
__Lintret                          intret       000000
__Lintsave_regs                    intsave_regs 000000
__Lirdata                          irdata       000000
__Lmediumconst                     mediumconst  000000
__LnvFARRAM                        nvFARRAM     000000
__Lnvbit                           nvbit        000000
__Lnvrram                          nvrram       000000
__Lparam                           rparam       000000
__Lpowerup                         powerup      00000E
__Lram                             ram          000000
__Lramtop                          ramtop       000600
__Lrbit                            rbit         000000
__Lrbss                            rbss         000000
__Lrdata                           rdata        000000
__Lreset_vec                       reset_vec    000000
__Lrparam                          rparam       000000
__Lsfr                             sfr          000000
__Lsmallconst                      smallconst   000600
__Lspace_0                         (abs)        000000
__Lspace_1                         (abs)        000000
__Lspace_2                         (abs)        000000
__Lspace_4                         (abs)        000000
__Lstack                           stack        000000
__Lstruct                          struct       000000
__Ltemp                            temp         000068
__Ltext                            text         000000
__Ltext0                           text0        000000
__Ltext1                           text1        000000
__Ltext11                          text11       000000
__Ltext12                          text12       000000
__Ltext13                          text13       000000
__Ltext14                          text14       000000
__Ltext15                          text15       000000
__Ltext16                          text16       000000
__Ltext17                          text17       000000
__Ltext18                          text18       000000
__Ltext19                          text19       000000
__Ltext2                           text2        000000
__Ltext3                           text3        000000
__Ltext4                           text4        000000
__Ltext5                           text5        000000
__Ltext6                           text6        000000
__Ltext7                           text7        000000
__Ltext8                           text8        000000
__Ltext9                           text9        000000
__S0                               (abs)        001493
__S1                               (abs)        0000BA
__S2                               (abs)        000000
__S4                               (abs)        000000
__S5                               (abs)        000000
___awdiv                           text8        000C96
___awdiv@counter                   cstackBANK0  000084
___awdiv@dividend                  cstackBANK0  000080
___awdiv@divisor                   cstackBANK0  000082
___awdiv@quotient                  cstackBANK0  000086
___awdiv@sign                      cstackBANK0  000085
___awmod                           text9        000F90
___awmod@counter                   cstackBANK0  000084
___awmod@dividend                  cstackBANK0  000080
___awmod@divisor                   cstackBANK0  000082
___awmod@sign                      cstackBANK0  000085
___inthi_sp                        stack        000000
___intlo_sp                        stack        000000
___param_bank                      (abs)        000000
___rparam_used                     (abs)        000001
___sp                              stack        000000
__accesstop                        (abs)        000080
__activetblptr                     (abs)        000002
__end_of___awdiv                   text8        000D5C
__end_of___awmod                   text9        001042
__end_of__initialization           cinit        0013FE
__end_of_fputc                     text6        00118A
__end_of_main                      text0        00084C
__end_of_output                    text1        001364
__end_of_print_binary              text2        000EDA
__end_of_printf                    text3        001434
__end_of_putch                     text7        001472
__end_of_timer_overflow_interrupt  intcode_body 000C96
__end_of_vfpfcnvrt                 text5        0009F8
__end_of_vfprintf                  text4        001296
__end_ofi2___awdiv                 text18       000E20
__end_ofi2___awmod                 text19       0010F2
__end_ofi2_fputc                   text16       001220
__end_ofi2_output                  text11       0013BA
__end_ofi2_print_binary            text12       000F90
__end_ofi2_printf                  text13       00145A
__end_ofi2_putch                   text17       001488
__end_ofi2_vfpfcnvrt               text15       000B9C
__end_ofi2_vfprintf                text14       001308
__initialization                   cinit        0013BA
__mediumconst                      mediumconst  000000
__pbssCOMRAM                       bssCOMRAM    000038
__pcinit                           cinit        0013BA
__pcstackBANK0                     cstackBANK0  000080
__pcstackCOMRAM                    cstackCOMRAM 000001
__pdataBANK0                       dataBANK0    0000B1
__pdataCOMRAM                      dataCOMRAM   000066
__pidataBANK0                      idataBANK0   001488
__pidataCOMRAM                     idataCOMRAM  001491
__pintcode                         intcode      000008
__pintcode_body                    intcode_body 000B9C
__psmallconst                      smallconst   000600
__ptext0                           text0        000608
__ptext1                           text1        001308
__ptext11                          text11       001364
__ptext12                          text12       000EDA
__ptext13                          text13       001434
__ptext14                          text14       001296
__ptext15                          text15       0009F8
__ptext16                          text16       00118A
__ptext17                          text17       001472
__ptext18                          text18       000D5C
__ptext19                          text19       001042
__ptext2                           text2        000E20
__ptext3                           text3        00140C
__ptext4                           text4        001220
__ptext5                           text5        00084C
__ptext6                           text6        0010F2
__ptext7                           text7        00145A
__ptext8                           text8        000C96
__ptext9                           text9        000F90
__ramtop                           ramtop       000600
__size_of___awdiv                  (abs)        000000
__size_of___awmod                  (abs)        000000
__size_of_fputc                    (abs)        000000
__size_of_main                     (abs)        000000
__size_of_output                   (abs)        000000
__size_of_print_binary             (abs)        000000
__size_of_printf                   (abs)        000000
__size_of_putch                    (abs)        000000
__size_of_timer_overflow_interrupt (abs)        000000
__size_of_vfpfcnvrt                (abs)        000000
__size_of_vfprintf                 (abs)        000000
__size_ofi2___awdiv                (abs)        000000
__size_ofi2___awmod                (abs)        000000
__size_ofi2_fputc                  (abs)        000000
__size_ofi2_output                 (abs)        000000
__size_ofi2_print_binary           (abs)        000000
__size_ofi2_printf                 (abs)        000000
__size_ofi2_putch                  (abs)        000000
__size_ofi2_vfpfcnvrt              (abs)        000000
__size_ofi2_vfprintf               (abs)        000000
__smallconst                       smallconst   000600
_flags                             bssCOMRAM    00005E
_fputc                             text6        0010F2
_hour                              bssCOMRAM    000060
_main                              text0        000608
_milisecond                        bssCOMRAM    000064
_minute                            bssCOMRAM    000062
_nout                              bssCOMRAM    000058
_output                            text1        001308
_prec                              bssCOMRAM    00005C
_print_binary                      text2        000E20
_printf                            text3        00140C
_putch                             text7        00145A
_second                            dataCOMRAM   000066
_timer_overflow_interrupt          intcode      000008
_vfpfcnvrt                         text5        00084C
_vfprintf                          text4        001220
_width                             bssCOMRAM    00005A
btemp                              temp         000068
end_of_initialization              cinit        0013FE
fputc@c                            cstackBANK0  000081
fputc@fp                           cstackBANK0  000083
i2___awdiv                         text18       000D5C
i2___awdiv@counter                 cstackCOMRAM 000005
i2___awdiv@dividend                cstackCOMRAM 000001
i2___awdiv@divisor                 cstackCOMRAM 000003
i2___awdiv@quotient                cstackCOMRAM 000007
i2___awdiv@sign                    cstackCOMRAM 000006
i2___awmod                         text19       001042
i2___awmod@counter                 cstackCOMRAM 000005
i2___awmod@dividend                cstackCOMRAM 000001
i2___awmod@divisor                 cstackCOMRAM 000003
i2___awmod@sign                    cstackCOMRAM 000006
i2_fputc                           text16       00118A
i2_output                          text11       001364
i2_print_binary                    text12       000EDA
i2_printf                          text13       001434
i2_putch                           text17       001472
i2_vfpfcnvrt                       text15       0009F8
i2_vfprintf                        text14       001296
i2fputc@c                          cstackCOMRAM 000002
i2fputc@fp                         cstackCOMRAM 000004
i2print_binary@binary              cstackCOMRAM 000025
i2print_binary@i                   cstackCOMRAM 00002E
i2print_binary@num                 cstackCOMRAM 000021
i2printf@ap                        cstackCOMRAM 00001F
i2printf@fmt                       cstackCOMRAM 00001D
i2putch@data                       cstackCOMRAM 000001
i2vfpfcnvrt@ap                     cstackCOMRAM 00000F
i2vfpfcnvrt@fmt                    cstackCOMRAM 00000D
i2vfpfcnvrt@fp                     cstackCOMRAM 00000B
i2vfpfcnvrt@vp                     cstackCOMRAM 000013
i2vfprintf@ap                      cstackCOMRAM 000019
i2vfprintf@cfmt                    cstackCOMRAM 00001B
i2vfprintf@fmt                     cstackCOMRAM 000017
i2vfprintf@fp                      cstackCOMRAM 000015
int$flags                          temp         000068
int_func                           intcode_body 000B9C
intlevel0                          text         000000
intlevel1                          text         000000
intlevel2                          text         000000
intlevel3                          text         000000
isa$std                            (abs)        000001
isa$xinst                          (abs)        000000
print_binary@F2857                 dataBANK0    0000B1
print_binary@binary                cstackBANK0  0000A4
print_binary@i                     cstackBANK0  0000AD
print_binary@num                   cstackBANK0  0000A0
printf@ap                          cstackBANK0  00009E
printf@fmt                         cstackBANK0  00009C
putch@data                         cstackBANK0  000080
stackhi                            (abs)        0005FF
stacklo                            (abs)        0000BA
start                              init         00000E
start_initialization               cinit        0013BA
ttemp5                             temp         000069
ttemp6                             temp         00006C
ttemp7                             temp         000070
vfpfcnvrt@ap                       cstackBANK0  00008E
vfpfcnvrt@fmt                      cstackBANK0  00008C
vfpfcnvrt@fp                       cstackBANK0  00008A
vfpfcnvrt@vp                       cstackBANK0  000092
vfprintf@ap                        cstackBANK0  000098
vfprintf@cfmt                      cstackBANK0  00009A
vfprintf@fmt                       cstackBANK0  000096
vfprintf@fp                        cstackBANK0  000094
wtemp8                             temp         000069


MODULE INFORMATION

Module		Function		Class		Link	Load	Size
D:\Applications\Programming\Programming Environments\xc8_compiler\pic\sources\c99\common\awmod.c
		___awmod       		CODE           	0F90	0000	178

D:\Applications\Programming\Programming Environments\xc8_compiler\pic\sources\c99\common\awmod.c estimated size: 178

D:\Applications\Programming\Programming Environments\xc8_compiler\pic\sources\c99\common\doprnt.c
		_vfpfcnvrt     		CODE           	084C	0000	428
		_vfprintf      		CODE           	1220	0000	118

D:\Applications\Programming\Programming Environments\xc8_compiler\pic\sources\c99\common\doprnt.c estimated size: 546

D:\Applications\Programming\Programming Environments\xc8_compiler\pic\sources\c99\common\awdiv.c
		___awdiv       		CODE           	0C96	0000	198

D:\Applications\Programming\Programming Environments\xc8_compiler\pic\sources\c99\common\awdiv.c estimated size: 198

D:\Applications\Programming\Programming Environments\xc8_compiler\pic\sources\c99\common\nf_fputc.c
		_fputc         		CODE           	10F2	0000	152

D:\Applications\Programming\Programming Environments\xc8_compiler\pic\sources\c99\common\nf_fputc.c estimated size: 152

Main.c
		_putch         		CODE           	145A	0000	24
		_main          		CODE           	0608	0000	580
		_output        		CODE           	1308	0000	92
		_timer_overflow_interrupt		CODE           	0008	0000	256
		_print_binary  		CODE           	0E20	0000	186

Main.c estimated size: 1138

shared
		i2_printf      		CODE           	1434	0000	38
		i2_vfpfcnvrt   		CODE           	09F8	0000	420
		i2_putch       		CODE           	1472	0000	22
		i2_vfprintf    		CODE           	1296	0000	114
		i2_print_binary		CODE           	0EDA	0000	182
		i2___awdiv     		CODE           	0D5C	0000	196
		__initialization		CODE           	13BA	0000	68
		i2_output      		CODE           	1364	0000	86
		i2___awmod     		CODE           	1042	0000	176
		i2_fputc       		CODE           	118A	0000	150

shared estimated size: 1452

D:\Applications\Programming\Programming Environments\xc8_compiler\pic\sources\c99\common\printf.c
		_printf        		CODE           	140C	0000	40

D:\Applications\Programming\Programming Environments\xc8_compiler\pic\sources\c99\common\printf.c estimated size: 40

